target datalayout = "e-m:e-p270:32:32-p271:32:32-p272:64:64-i64:64-i128:128-f80:128-n8:16:32:64-S128"
target triple = "x86_64-pc-linux-gnu"

%struct.cb_options = type { i8, ptr, i8, i8, ptr, i32, i8, i32, i32 }
%struct.cb_cleanup_dir = type { ptr, i8, ptr }

@__pg_log_level = external global i32, align 4
@.str.34 = private unnamed_addr constant [28 x i8] c"would create directory \22%s\22\00", align 1
@.str.35 = private unnamed_addr constant [24 x i8] c"creating directory \22%s\22\00", align 1
@pg_dir_create_mode = external global i32, align 4
@.str.36 = private unnamed_addr constant [36 x i8] c"could not create directory \22%s\22: %m\00", align 1
@cleanup_dir_list = internal global ptr null, align 8
@.str.65 = private unnamed_addr constant [30 x i8] c"using existing directory \22%s\22\00", align 1
@.str.66 = private unnamed_addr constant [39 x i8] c"directory \22%s\22 exists but is not empty\00", align 1
@.str.67 = private unnamed_addr constant [36 x i8] c"could not access directory \22%s\22: %m\00", align 1

; Function Attrs: nounwind uwtable
define internal void @remember_to_cleanup_directory(ptr noundef %0, i1 noundef zeroext %1) #0 {
  %3 = alloca ptr, align 8
  %4 = alloca i8, align 1
  %5 = alloca ptr, align 8
  store ptr %0, ptr %3, align 8
  %6 = zext i1 %1 to i8
  store i8 %6, ptr %4, align 1
  call void @llvm.lifetime.start.p0(i64 8, ptr %5) #9
  %7 = call ptr @pg_malloc(i64 noundef 24)
  store ptr %7, ptr %5, align 8
  %8 = load ptr, ptr %3, align 8
  %9 = load ptr, ptr %5, align 8
  %10 = getelementptr inbounds nuw %struct.cb_cleanup_dir, ptr %9, i32 0, i32 0
  store ptr %8, ptr %10, align 8
  %11 = load i8, ptr %4, align 1, !range !6, !noundef !7
  %12 = trunc i8 %11 to i1
  %13 = load ptr, ptr %5, align 8
  %14 = getelementptr inbounds nuw %struct.cb_cleanup_dir, ptr %13, i32 0, i32 1
  %15 = zext i1 %12 to i8
  store i8 %15, ptr %14, align 8
  %16 = load ptr, ptr @cleanup_dir_list, align 8
  %17 = load ptr, ptr %5, align 8
  %18 = getelementptr inbounds nuw %struct.cb_cleanup_dir, ptr %17, i32 0, i32 2
  store ptr %16, ptr %18, align 8
  %19 = load ptr, ptr %5, align 8
  store ptr %19, ptr @cleanup_dir_list, align 8
  call void @llvm.lifetime.end.p0(i64 8, ptr %5) #9
  ret void
}

; Function Attrs: nounwind uwtable
define internal void @create_output_directory(ptr noundef %0, ptr noundef %1) #0 {
  %3 = alloca ptr, align 8
  %4 = alloca ptr, align 8
  store ptr %0, ptr %3, align 8
  store ptr %1, ptr %4, align 8
  %5 = load ptr, ptr %3, align 8
  %6 = call i32 @pg_check_dir(ptr noundef %5)
  switch i32 %6, label %73 [
    i32 0, label %7
    i32 1, label %50
    i32 2, label %65
    i32 3, label %65
    i32 4, label %65
    i32 -1, label %69
  ]

7:                                                ; preds = %2
  %8 = load ptr, ptr %4, align 8
  %9 = getelementptr inbounds nuw %struct.cb_options, ptr %8, i32 0, i32 2
  %10 = load i8, ptr %9, align 8, !range !6, !noundef !7
  %11 = trunc i8 %10 to i1
  br i1 %11, label %12, label %26

12:                                               ; preds = %7
  br label %13

13:                                               ; preds = %12
  %14 = load i32, ptr @__pg_log_level, align 4
  %15 = icmp ule i32 %14, 1
  %16 = zext i1 %15 to i32
  %17 = icmp ne i32 %16, 0
  %18 = zext i1 %17 to i32
  %19 = sext i32 %18 to i64
  %20 = call i64 @llvm.expect.i64(i64 %19, i64 0)
  %21 = icmp ne i64 %20, 0
  br i1 %21, label %22, label %24

22:                                               ; preds = %13
  %23 = load ptr, ptr %3, align 8
  call void (i32, i32, ptr, ...) @pg_log_generic(i32 noundef 1, i32 noundef 0, ptr noundef @.str.34, ptr noundef %23)
  br label %24

24:                                               ; preds = %22, %13
  br label %25

25:                                               ; preds = %24
  br label %73

26:                                               ; preds = %7
  br label %27

27:                                               ; preds = %26
  %28 = load i32, ptr @__pg_log_level, align 4
  %29 = icmp ule i32 %28, 1
  %30 = zext i1 %29 to i32
  %31 = icmp ne i32 %30, 0
  %32 = zext i1 %31 to i32
  %33 = sext i32 %32 to i64
  %34 = call i64 @llvm.expect.i64(i64 %33, i64 0)
  %35 = icmp ne i64 %34, 0
  br i1 %35, label %36, label %38

36:                                               ; preds = %27
  %37 = load ptr, ptr %3, align 8
  call void (i32, i32, ptr, ...) @pg_log_generic(i32 noundef 1, i32 noundef 0, ptr noundef @.str.35, ptr noundef %37)
  br label %38

38:                                               ; preds = %36, %27
  br label %39

39:                                               ; preds = %38
  %40 = load ptr, ptr %3, align 8
  %41 = load i32, ptr @pg_dir_create_mode, align 4
  %42 = call i32 @pg_mkdir_p(ptr noundef %40, i32 noundef %41)
  %43 = icmp eq i32 %42, -1
  br i1 %43, label %44, label %48

44:                                               ; preds = %39
  br label %45

45:                                               ; preds = %44
  %46 = load ptr, ptr %3, align 8
  call void (i32, i32, ptr, ...) @pg_log_generic(i32 noundef 4, i32 noundef 0, ptr noundef @.str.36, ptr noundef %46)
  call void @exit(i32 noundef 1) #10
  unreachable

47:                                               ; No predecessors!
  br label %48

48:                                               ; preds = %47, %39
  %49 = load ptr, ptr %3, align 8
  call void @remember_to_cleanup_directory(ptr noundef %49, i1 noundef zeroext true)
  br label %73

50:                                               ; preds = %2
  br label %51

51:                                               ; preds = %50
  %52 = load i32, ptr @__pg_log_level, align 4
  %53 = icmp ule i32 %52, 1
  %54 = zext i1 %53 to i32
  %55 = icmp ne i32 %54, 0
  %56 = zext i1 %55 to i32
  %57 = sext i32 %56 to i64
  %58 = call i64 @llvm.expect.i64(i64 %57, i64 0)
  %59 = icmp ne i64 %58, 0
  br i1 %59, label %60, label %62

60:                                               ; preds = %51
  %61 = load ptr, ptr %3, align 8
  call void (i32, i32, ptr, ...) @pg_log_generic(i32 noundef 1, i32 noundef 0, ptr noundef @.str.65, ptr noundef %61)
  br label %62

62:                                               ; preds = %60, %51
  br label %63

63:                                               ; preds = %62
  %64 = load ptr, ptr %3, align 8
  call void @remember_to_cleanup_directory(ptr noundef %64, i1 noundef zeroext false)
  br label %73

65:                                               ; preds = %2, %2, %2
  br label %66

66:                                               ; preds = %65
  %67 = load ptr, ptr %3, align 8
  call void (i32, i32, ptr, ...) @pg_log_generic(i32 noundef 4, i32 noundef 0, ptr noundef @.str.66, ptr noundef %67)
  call void @exit(i32 noundef 1) #10
  unreachable

68:                                               ; No predecessors!
  br label %69

69:                                               ; preds = %2, %68
  br label %70

70:                                               ; preds = %69
  %71 = load ptr, ptr %3, align 8
  call void (i32, i32, ptr, ...) @pg_log_generic(i32 noundef 4, i32 noundef 0, ptr noundef @.str.67, ptr noundef %71)
  call void @exit(i32 noundef 1) #10
  unreachable

72:                                               ; No predecessors!
  br label %73

73:                                               ; preds = %25, %72, %2, %63, %48
  ret void
}