; Function Attrs: nounwind uwtable
define internal fastcc void @create_output_directory(ptr noundef %0, ptr noundef nonnull readonly captures(none) %1) unnamed_addr #3 {
  %3 = tail call i32 @pg_check_dir(ptr noundef %0) #12
  switch i32 %3, label %35 [
    i32 0, label %4
    i32 1, label %24
    i32 2, label %33
    i32 3, label %33
    i32 4, label %33
    i32 -1, label %34
  ]

4:                                                ; preds = %2
  %5 = getelementptr inbounds nuw i8, ptr %1, i64 16
  %6 = load i8, ptr %5, align 8, !range !7, !noundef !8
  %7 = trunc nuw i8 %6 to i1
  %8 = load i32, ptr @__pg_log_level, align 4
  %9 = icmp ult i32 %8, 2
  br i1 %7, label %10, label %12

10:                                               ; preds = %4
  br i1 %9, label %11, label %35, !prof !9

11:                                               ; preds = %10
  tail call void (i32, i32, ptr, ...) @pg_log_generic(i32 noundef 1, i32 noundef 0, ptr noundef nonnull @.str.34, ptr noundef %0) #12
  br label %35

12:                                               ; preds = %4
  br i1 %9, label %13, label %14, !prof !9

13:                                               ; preds = %12
  tail call void (i32, i32, ptr, ...) @pg_log_generic(i32 noundef 1, i32 noundef 0, ptr noundef nonnull @.str.35, ptr noundef %0) #12
  br label %14

14:                                               ; preds = %12, %13
  %15 = load i32, ptr @pg_dir_create_mode, align 4
  %16 = tail call i32 @pg_mkdir_p(ptr noundef %0, i32 noundef %15) #12
  %17 = icmp eq i32 %16, -1
  br i1 %17, label %18, label %19

18:                                               ; preds = %14
  tail call void (i32, i32, ptr, ...) @pg_log_generic(i32 noundef 4, i32 noundef 0, ptr noundef nonnull @.str.36, ptr noundef %0) #12
  tail call void @exit(i32 noundef 1) #13
  unreachable

19:                                               ; preds = %14
  %20 = tail call ptr @pg_malloc(i64 noundef 24) #12
  store ptr %0, ptr %20, align 8
  %21 = getelementptr inbounds nuw i8, ptr %20, i64 8
  store i8 1, ptr %21, align 8
  %22 = load ptr, ptr @cleanup_dir_list, align 8
  %23 = getelementptr inbounds nuw i8, ptr %20, i64 16
  store ptr %22, ptr %23, align 8
  store ptr %20, ptr @cleanup_dir_list, align 8
  br label %35

24:                                               ; preds = %2
  %25 = load i32, ptr @__pg_log_level, align 4
  %26 = icmp ult i32 %25, 2
  br i1 %26, label %27, label %28, !prof !9

27:                                               ; preds = %24
  tail call void (i32, i32, ptr, ...) @pg_log_generic(i32 noundef 1, i32 noundef 0, ptr noundef nonnull @.str.65, ptr noundef %0) #12
  br label %28

28:                                               ; preds = %24, %27
  %29 = tail call ptr @pg_malloc(i64 noundef 24) #12
  store ptr %0, ptr %29, align 8
  %30 = getelementptr inbounds nuw i8, ptr %29, i64 8
  store i8 0, ptr %30, align 8
  %31 = load ptr, ptr @cleanup_dir_list, align 8
  %32 = getelementptr inbounds nuw i8, ptr %29, i64 16
  store ptr %31, ptr %32, align 8
  store ptr %29, ptr @cleanup_dir_list, align 8
  br label %35

33:                                               ; preds = %2, %2, %2
  tail call void (i32, i32, ptr, ...) @pg_log_generic(i32 noundef 4, i32 noundef 0, ptr noundef nonnull @.str.66, ptr noundef %0) #12
  tail call void @exit(i32 noundef 1) #13
  unreachable

34:                                               ; preds = %2
  tail call void (i32, i32, ptr, ...) @pg_log_generic(i32 noundef 4, i32 noundef 0, ptr noundef nonnull @.str.67, ptr noundef %0) #12
  tail call void @exit(i32 noundef 1) #13
  unreachable

35:                                               ; preds = %11, %10, %28, %19, %2
  ret void
}